Certificate:
    Data:
        Version: 3 (0x2)
        Serial Number:
            ac:c5:80:39:a7:f7:4b:c0:f2:28:c2:8e:e7:c7:bc:91
        Signature Algorithm: ecdsa-with-SHA256
        Issuer: CN=Easy-RSA CA
        Validity
            Not Before: Apr 11 04:29:54 2022 GMT
            Not After : Mar 26 04:29:54 2025 GMT
        Subject: C=CA, ST=Quebec, L=Montreal, O=KtTestOrg, OU=KtTestOrgUnit, CN=ktserverone
        Subject Public Key Info:
            Public Key Algorithm: rsaEncryption
                RSA Public-Key: (2048 bit)
                Modulus:
                    00:d4:76:55:a2:b3:fb:b4:86:72:2d:ef:88:65:58:
                    93:93:e2:48:50:e2:06:d9:a5:77:ba:69:02:db:c5:
                    35:f5:b5:83:10:c1:bd:a9:57:ae:82:fb:77:b8:57:
                    a6:a2:2f:e6:7e:52:97:3c:57:df:fe:6a:39:ab:80:
                    ad:40:18:0d:b7:d7:b5:c2:b0:f4:25:37:96:16:57:
                    f5:91:2d:13:23:60:a1:98:cd:e1:49:8a:3b:88:60:
                    d7:08:96:a4:90:8a:c2:57:8e:40:d2:af:1c:e0:79:
                    e7:f8:fb:18:2b:1d:64:dd:71:49:46:09:e6:c8:62:
                    8d:a0:c9:3d:68:1b:4a:59:bd:22:9f:a5:76:d2:e3:
                    47:21:73:60:a4:71:81:dc:e9:95:5b:b6:e3:12:e7:
                    98:84:4e:c5:8a:ec:dc:04:ea:aa:dc:68:68:c9:7f:
                    23:ef:56:12:94:5f:7c:8b:c4:89:3c:7a:0b:16:c3:
                    a9:13:4b:eb:4b:38:24:2a:cb:a4:57:7d:13:50:c7:
                    6b:fa:af:bb:78:57:53:64:a6:fa:62:1a:7f:0d:83:
                    fb:46:7c:21:fb:2b:bf:21:8e:39:c9:ad:35:4d:7e:
                    dc:bf:57:d3:aa:a8:ee:ba:b9:82:e4:76:af:b4:35:
                    b1:11:83:e9:68:45:0b:93:47:7e:25:8d:4d:46:72:
                    21:17
                Exponent: 65537 (0x10001)
        X509v3 extensions:
            X509v3 Basic Constraints: 
                CA:FALSE
            X509v3 Subject Key Identifier: 
                6F:A8:27:71:2B:BB:4C:53:60:7B:23:D9:E4:EA:BB:EF:88:1B:B0:25
            X509v3 Authority Key Identifier: 
                keyid:B0:D8:00:62:60:A6:5F:B8:BF:D4:CC:9C:D3:42:27:D3:76:74:F2:3E
                DirName:/CN=Easy-RSA CA
                serial:6A:F8:34:B9:B9:A5:7D:5F:DE:9D:C7:1A:C5:51:D4:02:71:36:60:CA

            X509v3 Extended Key Usage: 
                TLS Web Server Authentication
            X509v3 Key Usage: 
                Digital Signature, Key Encipherment
            X509v3 Subject Alternative Name: 
                DNS:ktserverone
    Signature Algorithm: ecdsa-with-SHA256
         30:66:02:31:00:a5:18:38:3a:f9:4c:22:bd:86:d3:d0:8c:33:
         cb:f7:6e:ae:ca:77:74:c2:0c:b0:4c:13:6a:8a:00:41:3d:9d:
         86:5c:20:e7:d5:50:22:5b:6f:ab:07:11:20:0c:95:a7:42:02:
         31:00:fd:c4:b5:4e:e0:de:ec:fe:0a:c7:00:1c:50:a5:a0:77:
         52:a7:ac:8c:bc:2a:a8:52:bf:e6:4f:df:12:63:8d:dc:01:4c:
         f8:b4:94:89:2b:43:9c:cf:20:5c:d1:99:c8:14
-----BEGIN CERTIFICATE-----
MIIDLzCCArSgAwIBAgIRAKzFgDmn90vA8ijCjufHvJEwCgYIKoZIzj0EAwIwFjEU
MBIGA1UEAwwLRWFzeS1SU0EgQ0EwHhcNMjIwNDExMDQyOTU0WhcNMjUwMzI2MDQy
OTU0WjBzMQswCQYDVQQGEwJDQTEPMA0GA1UECAwGUXVlYmVjMREwDwYDVQQHDAhN
b250cmVhbDESMBAGA1UECgwJS3RUZXN0T3JnMRYwFAYDVQQLDA1LdFRlc3RPcmdV
bml0MRQwEgYDVQQDDAtrdHNlcnZlcm9uZTCCASIwDQYJKoZIhvcNAQEBBQADggEP
ADCCAQoCggEBANR2VaKz+7SGci3viGVYk5PiSFDiBtmld7ppAtvFNfW1gxDBvalX
roL7d7hXpqIv5n5SlzxX3/5qOauArUAYDbfXtcKw9CU3lhZX9ZEtEyNgoZjN4UmK
O4hg1wiWpJCKwleOQNKvHOB55/j7GCsdZN1xSUYJ5shijaDJPWgbSlm9Ip+ldtLj
RyFzYKRxgdzplVu24xLnmIROxYrs3ATqqtxoaMl/I+9WEpRffIvEiTx6CxbDqRNL
60s4JCrLpFd9E1DHa/qvu3hXU2Sm+mIafw2D+0Z8IfsrvyGOOcmtNU1+3L9X06qo
7rq5guR2r7Q1sRGD6WhFC5NHfiWNTUZyIRcCAwEAAaOBujCBtzAJBgNVHRMEAjAA
MB0GA1UdDgQWBBRvqCdxK7tMU2B7I9nk6rvviBuwJTBRBgNVHSMESjBIgBSw2ABi
YKZfuL/UzJzTQifTdnTyPqEapBgwFjEUMBIGA1UEAwwLRWFzeS1SU0EgQ0GCFGr4
NLm5pX1f3p3HGsVR1AJxNmDKMBMGA1UdJQQMMAoGCCsGAQUFBwMBMAsGA1UdDwQE
AwIFoDAWBgNVHREEDzANggtrdHNlcnZlcm9uZTAKBggqhkjOPQQDAgNpADBmAjEA
pRg4OvlMIr2G09CMM8v3bq7Kd3TCDLBME2qKAEE9nYZcIOfVUCJbb6sHESAMladC
AjEA/cS1TuDe7P4KxwAcUKWgd1KnrIy8KqhSv+ZP3xJjjdwBTPi0lIkrQ5zPIFzR
mcgU
-----END CERTIFICATE-----
