Certificate:
    Data:
        Version: 3 (0x2)
        Serial Number:
            a3:ca:77:cf:c2:5f:14:cf:40:fa:f4:1e:b7:d2:41:33
        Signature Algorithm: ecdsa-with-SHA256
        Issuer: CN=Easy-RSA CA
        Validity
            Not Before: Apr 11 04:51:15 2022 GMT
            Not After : Mar 26 04:51:15 2025 GMT
        Subject: C=CA, ST=Quebec, L=Montreal, O=KtTestOrg, OU=KtTestOrgUnit, CN=ktserverone
        Subject Public Key Info:
            Public Key Algorithm: id-ecPublicKey
                Public-Key: (256 bit)
                pub:
                    04:af:61:9a:18:d6:f6:cc:fc:1f:7a:a2:a9:e9:71:
                    c9:4c:64:ef:77:24:a6:f4:fb:2d:8b:41:ea:97:a2:
                    f9:c0:42:ad:2f:3e:ae:db:ae:6c:02:37:23:c3:1b:
                    a9:a8:dd:f0:b8:a7:af:c4:63:b4:78:75:cd:95:6a:
                    77:25:a5:81:8c
                ASN1 OID: prime256v1
                NIST CURVE: P-256
        X509v3 extensions:
            X509v3 Basic Constraints: 
                CA:FALSE
            X509v3 Subject Key Identifier: 
                FD:F4:A7:32:AE:91:50:5D:74:27:01:33:F5:0B:F0:1F:32:31:13:49
            X509v3 Authority Key Identifier: 
                keyid:B0:D8:00:62:60:A6:5F:B8:BF:D4:CC:9C:D3:42:27:D3:76:74:F2:3E
                DirName:/CN=Easy-RSA CA
                serial:6A:F8:34:B9:B9:A5:7D:5F:DE:9D:C7:1A:C5:51:D4:02:71:36:60:CA

            X509v3 Extended Key Usage: 
                TLS Web Server Authentication
            X509v3 Key Usage: 
                Digital Signature, Key Encipherment
            X509v3 Subject Alternative Name: 
                DNS:ktserverone
    Signature Algorithm: ecdsa-with-SHA256
         30:66:02:31:00:d9:30:e1:8c:46:8e:0c:97:fc:f9:b3:25:94:
         c8:23:ca:9b:2f:c0:d0:a1:aa:5e:cf:17:d0:ac:69:1c:e7:c7:
         b1:1c:5e:ee:4e:d3:78:55:a2:47:61:0b:9c:56:e7:b0:d8:02:
         31:00:da:d9:94:f5:b9:c6:a5:12:7d:8c:05:4d:84:66:9f:c5:
         e1:e4:93:af:a6:4b:45:ea:65:24:8f:49:35:2f:a6:f3:8c:6e:
         05:1e:7e:22:68:80:ea:bb:d1:4e:6a:ed:c6:7e
-----BEGIN CERTIFICATE-----
MIICZDCCAemgAwIBAgIRAKPKd8/CXxTPQPr0HrfSQTMwCgYIKoZIzj0EAwIwFjEU
MBIGA1UEAwwLRWFzeS1SU0EgQ0EwHhcNMjIwNDExMDQ1MTE1WhcNMjUwMzI2MDQ1
MTE1WjBzMQswCQYDVQQGEwJDQTEPMA0GA1UECAwGUXVlYmVjMREwDwYDVQQHDAhN
b250cmVhbDESMBAGA1UECgwJS3RUZXN0T3JnMRYwFAYDVQQLDA1LdFRlc3RPcmdV
bml0MRQwEgYDVQQDDAtrdHNlcnZlcm9uZTBZMBMGByqGSM49AgEGCCqGSM49AwEH
A0IABK9hmhjW9sz8H3qiqelxyUxk73ckpvT7LYtB6pei+cBCrS8+rtuubAI3I8Mb
qajd8Linr8RjtHh1zZVqdyWlgYyjgbowgbcwCQYDVR0TBAIwADAdBgNVHQ4EFgQU
/fSnMq6RUF10JwEz9QvwHzIxE0kwUQYDVR0jBEowSIAUsNgAYmCmX7i/1Myc00In
03Z08j6hGqQYMBYxFDASBgNVBAMMC0Vhc3ktUlNBIENBghRq+DS5uaV9X96dxxrF
UdQCcTZgyjATBgNVHSUEDDAKBggrBgEFBQcDATALBgNVHQ8EBAMCBaAwFgYDVR0R
BA8wDYILa3RzZXJ2ZXJvbmUwCgYIKoZIzj0EAwIDaQAwZgIxANkw4YxGjgyX/Pmz
JZTII8qbL8DQoapezxfQrGkc58exHF7uTtN4VaJHYQucVuew2AIxANrZlPW5xqUS
fYwFTYRmn8Xh5JOvpktF6mUkj0k1L6bzjG4FHn4iaIDqu9FOau3Gfg==
-----END CERTIFICATE-----
