Certificate:
    Data:
        Version: 3 (0x2)
        Serial Number:
            bd:08:fc:85:c9:f0:b7:b3:c8:88:c1:c9:0c:29:1e:b4
        Signature Algorithm: ecdsa-with-SHA256
        Issuer: CN=Easy-RSA CA
        Validity
            Not Before: Apr 11 08:07:15 2022 GMT
            Not After : Mar 26 08:07:15 2025 GMT
        Subject: C=CA, ST=Quebec, L=Montreal, O=KtTestOrg, OU=KtTestOrgUnit, CN=ktserverone
        Subject Public Key Info:
            Public Key Algorithm: rsaEncryption
                RSA Public-Key: (2048 bit)
                Modulus:
                    00:ad:cc:35:8c:04:7b:5e:1e:06:a3:f6:27:15:ec:
                    90:ed:9f:7c:dc:20:22:e9:fd:57:25:1f:00:9d:f0:
                    63:e6:ee:f0:c0:5d:be:bc:0e:2f:ce:90:9e:78:65:
                    e5:30:12:96:00:d3:65:ac:6f:fd:05:f5:ff:fd:77:
                    68:22:c7:b1:df:4e:e3:8d:0d:14:02:d6:6d:c5:5f:
                    a5:ff:f2:14:96:0e:af:44:64:54:52:0a:b3:01:82:
                    80:7b:fe:16:a0:09:79:3d:fb:0c:e2:3e:b9:c9:e2:
                    4a:f1:7d:9e:6a:93:a8:16:5c:0e:31:70:17:d0:49:
                    63:db:04:43:c7:a6:77:f5:73:40:4c:69:d7:f6:f0:
                    74:78:ed:86:82:fd:47:2d:ca:7f:32:0d:fb:46:3a:
                    64:7d:1c:00:f7:ed:4f:93:80:a5:9f:ab:67:6c:0a:
                    9e:95:72:9b:5c:fc:2d:ea:3e:b9:8b:56:64:28:20:
                    e6:cc:b7:0b:02:f4:a5:03:e9:d2:57:27:0d:9e:c1:
                    46:04:ac:13:83:fe:43:71:57:b2:7e:13:88:d2:89:
                    3f:42:8a:00:82:fd:ab:fb:20:54:9f:2d:70:cf:bd:
                    de:99:31:c4:e8:77:62:18:53:c6:d2:19:fd:0f:fc:
                    7e:c7:b7:ea:1b:15:68:6c:0a:77:65:e7:7e:c8:df:
                    d6:33
                Exponent: 65537 (0x10001)
        X509v3 extensions:
            X509v3 Basic Constraints: 
                CA:FALSE
            X509v3 Subject Key Identifier: 
                90:BD:38:22:4A:AC:33:42:CD:7B:A1:17:70:D2:B4:E4:D0:51:F4:42
            X509v3 Authority Key Identifier: 
                keyid:B0:D8:00:62:60:A6:5F:B8:BF:D4:CC:9C:D3:42:27:D3:76:74:F2:3E
                DirName:/CN=Easy-RSA CA
                serial:6A:F8:34:B9:B9:A5:7D:5F:DE:9D:C7:1A:C5:51:D4:02:71:36:60:CA

            X509v3 Extended Key Usage: 
                TLS Web Server Authentication
            X509v3 Key Usage: 
                Digital Signature, Key Encipherment
            X509v3 Subject Alternative Name: 
                DNS:ktserverone
    Signature Algorithm: ecdsa-with-SHA256
         30:64:02:30:6c:08:51:cd:1d:2c:17:7e:32:a2:82:0d:04:6b:
         43:1c:11:e0:14:19:33:e3:8f:37:4d:c4:23:15:03:a6:b7:1d:
         db:f4:70:a4:90:c8:eb:ce:5e:0d:be:e4:e2:7a:7a:85:02:30:
         50:19:53:d4:7b:e1:94:90:33:ea:0a:10:09:72:a7:33:92:84:
         94:8a:f4:3d:fb:57:d7:3c:f2:8d:4c:4c:b3:b4:2e:25:2b:44:
         55:29:63:1d:c2:f2:2b:0e:97:1e:f7:ed
-----BEGIN CERTIFICATE-----
MIIDLTCCArSgAwIBAgIRAL0I/IXJ8LezyIjByQwpHrQwCgYIKoZIzj0EAwIwFjEU
MBIGA1UEAwwLRWFzeS1SU0EgQ0EwHhcNMjIwNDExMDgwNzE1WhcNMjUwMzI2MDgw
NzE1WjBzMQswCQYDVQQGEwJDQTEPMA0GA1UECAwGUXVlYmVjMREwDwYDVQQHDAhN
b250cmVhbDESMBAGA1UECgwJS3RUZXN0T3JnMRYwFAYDVQQLDA1LdFRlc3RPcmdV
bml0MRQwEgYDVQQDDAtrdHNlcnZlcm9uZTCCASIwDQYJKoZIhvcNAQEBBQADggEP
ADCCAQoCggEBAK3MNYwEe14eBqP2JxXskO2ffNwgIun9VyUfAJ3wY+bu8MBdvrwO
L86Qnnhl5TASlgDTZaxv/QX1//13aCLHsd9O440NFALWbcVfpf/yFJYOr0RkVFIK
swGCgHv+FqAJeT37DOI+ucniSvF9nmqTqBZcDjFwF9BJY9sEQ8emd/VzQExp1/bw
dHjthoL9Ry3KfzIN+0Y6ZH0cAPftT5OApZ+rZ2wKnpVym1z8Leo+uYtWZCgg5sy3
CwL0pQPp0lcnDZ7BRgSsE4P+Q3FXsn4TiNKJP0KKAIL9q/sgVJ8tcM+93pkxxOh3
YhhTxtIZ/Q/8fse36hsVaGwKd2Xnfsjf1jMCAwEAAaOBujCBtzAJBgNVHRMEAjAA
MB0GA1UdDgQWBBSQvTgiSqwzQs17oRdw0rTk0FH0QjBRBgNVHSMESjBIgBSw2ABi
YKZfuL/UzJzTQifTdnTyPqEapBgwFjEUMBIGA1UEAwwLRWFzeS1SU0EgQ0GCFGr4
NLm5pX1f3p3HGsVR1AJxNmDKMBMGA1UdJQQMMAoGCCsGAQUFBwMBMAsGA1UdDwQE
AwIFoDAWBgNVHREEDzANggtrdHNlcnZlcm9uZTAKBggqhkjOPQQDAgNnADBkAjBs
CFHNHSwXfjKigg0Ea0McEeAUGTPjjzdNxCMVA6a3Hdv0cKSQyOvOXg2+5OJ6eoUC
MFAZU9R74ZSQM+oKEAlypzOShJSK9D37V9c88o1MTLO0LiUrRFUpYx3C8isOlx73
7Q==
-----END CERTIFICATE-----
